; ModuleID = '54/26.c'
source_filename = "54/26.c"
target datalayout = "e-m:e-p270:32:32-p271:32:32-p272:64:64-i64:64-f80:128-n8:16:32:64-S128"
target triple = "x86_64-pc-linux-gnu"

@e = dso_local global i32 1, align 4
@.str = private unnamed_addr constant [6 x i8] c"%d %d\00", align 1
@.str.1 = private unnamed_addr constant [3 x i8] c"%d\00", align 1

; Function Attrs: noinline nounwind uwtable
define dso_local i32 @cs(i32 %0, i32 %1, i32 %2) #0 {
  %4 = alloca i32, align 4
  %5 = alloca i32, align 4
  %6 = alloca i32, align 4
  %7 = alloca i32, align 4
  store i32 %0, i32* %5, align 4
  store i32 %1, i32* %6, align 4
  store i32 %2, i32* %7, align 4
  %8 = load i32, i32* @e, align 4
  %9 = load i32, i32* %6, align 4
  %10 = add nsw i32 %9, 1
  %11 = icmp eq i32 %8, %10
  br i1 %11, label %12, label %13

12:                                               ; preds = %3
  store i32 1, i32* @e, align 4
  store i32 1, i32* %4, align 4
  br label %36

13:                                               ; preds = %3
  %14 = load i32, i32* %5, align 4
  %15 = load i32, i32* %6, align 4
  %16 = srem i32 %14, %15
  %17 = load i32, i32* %7, align 4
  %18 = icmp eq i32 %16, %17
  br i1 %18, label %19, label %35

19:                                               ; preds = %13
  %20 = load i32, i32* %5, align 4
  %21 = load i32, i32* %6, align 4
  %22 = icmp sgt i32 %20, %21
  br i1 %22, label %23, label %35

23:                                               ; preds = %19
  %24 = load i32, i32* @e, align 4
  %25 = add nsw i32 %24, 1
  store i32 %25, i32* @e, align 4
  %26 = load i32, i32* %5, align 4
  %27 = load i32, i32* %6, align 4
  %28 = sdiv i32 %26, %27
  %29 = load i32, i32* %6, align 4
  %30 = sub nsw i32 %29, 1
  %31 = mul nsw i32 %28, %30
  %32 = load i32, i32* %6, align 4
  %33 = load i32, i32* %7, align 4
  %34 = call i32 @cs(i32 %31, i32 %32, i32 %33)
  store i32 %34, i32* %4, align 4
  br label %36

35:                                               ; preds = %19, %13
  store i32 1, i32* @e, align 4
  store i32 0, i32* %4, align 4
  br label %36

36:                                               ; preds = %35, %23, %12
  %37 = load i32, i32* %4, align 4
  ret i32 %37
}

; Function Attrs: noinline nounwind uwtable
define dso_local void @main() #0 {
  %1 = alloca i32, align 4
  %2 = alloca i32, align 4
  %3 = alloca i32, align 4
  %4 = alloca i32, align 4
  %5 = alloca i32, align 4
  store i32 0, i32* %3, align 4
  store i32 1, i32* %5, align 4
  %6 = call i32 (i8*, ...) @__isoc99_scanf(i8* getelementptr inbounds ([6 x i8], [6 x i8]* @.str, i64 0, i64 0), i32* %1, i32* %2)
  store i32 1, i32* %4, align 4
  br label %7

7:                                                ; preds = %19, %0
  %8 = load i32, i32* %4, align 4
  store i32 %8, i32* %5, align 4
  %9 = load i32, i32* %4, align 4
  %10 = load i32, i32* %1, align 4
  %11 = load i32, i32* %2, align 4
  %12 = call i32 @cs(i32 %9, i32 %10, i32 %11)
  %13 = icmp eq i32 %12, 1
  br i1 %13, label %14, label %17

14:                                               ; preds = %7
  %15 = load i32, i32* %5, align 4
  %16 = call i32 (i8*, ...) @printf(i8* getelementptr inbounds ([3 x i8], [3 x i8]* @.str.1, i64 0, i64 0), i32 %15)
  br label %22

17:                                               ; preds = %7
  %18 = load i32, i32* %5, align 4
  store i32 %18, i32* %4, align 4
  br label %19

19:                                               ; preds = %17
  %20 = load i32, i32* %4, align 4
  %21 = add nsw i32 %20, 1
  store i32 %21, i32* %4, align 4
  br label %7

22:                                               ; preds = %14
  ret void
}

declare dso_local i32 @__isoc99_scanf(i8*, ...) #1

declare dso_local i32 @printf(i8*, ...) #1


!llvm.module.flags = !{!0}
!llvm.ident = !{!1}

!0 = !{i32 1, !"wchar_size", i32 4}
!1 = !{!"clang version 10.0.0-4ubuntu1 "}
